target datalayout = "e-m:e-p270:32:32-p271:32:32-p272:64:64-i64:64-i128:128-f80:128-n8:16:32:64-S128"
target triple = "x86_64-unknown-linux-gnu"

%"struct.facebook::velox::ByteRange" = type { ptr, i32, i32 }
%"class.facebook::velox::ByteInputStream" = type { ptr, %"class.std::vector.38", ptr }
%"class.std::vector.38" = type { %"struct.std::_Vector_base.39" }
%"struct.std::_Vector_base.39" = type { %"struct.std::_Vector_base<facebook::velox::ByteRange, std::allocator<facebook::velox::ByteRange>>::_Vector_impl" }
%"struct.std::_Vector_base<facebook::velox::ByteRange, std::allocator<facebook::velox::ByteRange>>::_Vector_impl" = type { %"struct.std::_Vector_base<facebook::velox::ByteRange, std::allocator<facebook::velox::ByteRange>>::_Vector_impl_data" }
%"struct.std::_Vector_base<facebook::velox::ByteRange, std::allocator<facebook::velox::ByteRange>>::_Vector_impl_data" = type { ptr, ptr, ptr }

; Function Attrs: mustprogress uwtable
define linkonce_odr noundef i64 @_ZN8facebook5velox15ByteInputStream4readIlEET_v(ptr noundef nonnull align 8 dereferenceable(40) %this) #0 comdat align 2 {
entry:
  %retval = alloca i64, align 8
  %this.addr = alloca ptr, align 8
  %value = alloca i64, align 8
  %i = alloca i32, align 4
  store ptr %this, ptr %this.addr, align 8
  %this1 = load ptr, ptr %this.addr, align 8
  %current_ = getelementptr inbounds %"class.facebook::velox::ByteInputStream", ptr %this1, i32 0, i32 2
  %0 = load ptr, ptr %current_, align 8
  %position = getelementptr inbounds %"struct.facebook::velox::ByteRange", ptr %0, i32 0, i32 2
  %1 = load i32, ptr %position, align 4
  %conv = sext i32 %1 to i64
  %add = add i64 %conv, 8
  %current_2 = getelementptr inbounds %"class.facebook::velox::ByteInputStream", ptr %this1, i32 0, i32 2
  %2 = load ptr, ptr %current_2, align 8
  %size = getelementptr inbounds %"struct.facebook::velox::ByteRange", ptr %2, i32 0, i32 1
  %3 = load i32, ptr %size, align 8
  %conv3 = sext i32 %3 to i64
  %cmp = icmp ule i64 %add, %conv3
  br i1 %cmp, label %if.then, label %if.end

if.then:                                          ; preds = %entry
  %current_4 = getelementptr inbounds %"class.facebook::velox::ByteInputStream", ptr %this1, i32 0, i32 2
  %4 = load ptr, ptr %current_4, align 8
  %position5 = getelementptr inbounds %"struct.facebook::velox::ByteRange", ptr %4, i32 0, i32 2
  %5 = load i32, ptr %position5, align 4
  %conv6 = sext i32 %5 to i64
  %add7 = add i64 %conv6, 8
  %conv8 = trunc i64 %add7 to i32
  store i32 %conv8, ptr %position5, align 4
  %current_9 = getelementptr inbounds %"class.facebook::velox::ByteInputStream", ptr %this1, i32 0, i32 2
  %6 = load ptr, ptr %current_9, align 8
  %buffer = getelementptr inbounds %"struct.facebook::velox::ByteRange", ptr %6, i32 0, i32 0
  %7 = load ptr, ptr %buffer, align 8
  %current_10 = getelementptr inbounds %"class.facebook::velox::ByteInputStream", ptr %this1, i32 0, i32 2
  %8 = load ptr, ptr %current_10, align 8
  %position11 = getelementptr inbounds %"struct.facebook::velox::ByteRange", ptr %8, i32 0, i32 2
  %9 = load i32, ptr %position11, align 4
  %idx.ext = sext i32 %9 to i64
  %add.ptr = getelementptr inbounds i8, ptr %7, i64 %idx.ext
  %add.ptr12 = getelementptr inbounds i8, ptr %add.ptr, i64 -8
  %10 = load i64, ptr %add.ptr12, align 8
  store i64 %10, ptr %retval, align 8
  br label %return

if.end:                                           ; preds = %entry
  store i64 0, ptr %value, align 8
  store i32 0, ptr %i, align 4
  br label %for.cond

for.cond:                                         ; preds = %for.inc, %if.end
  %11 = load i32, ptr %i, align 4
  %conv13 = sext i32 %11 to i64
  %cmp14 = icmp ult i64 %conv13, 8
  br i1 %cmp14, label %for.body, label %for.end

for.body:                                         ; preds = %for.cond
  %call = call noundef zeroext i8 @_ZN8facebook5velox15ByteInputStream8readByteEv(ptr noundef nonnull align 8 dereferenceable(40) %this1)
  %conv15 = zext i8 %call to i64
  %12 = load i32, ptr %i, align 4
  %mul = mul nsw i32 %12, 8
  %sh_prom = zext i32 %mul to i64
  %shl = shl i64 %conv15, %sh_prom
  %13 = load i64, ptr %value, align 8
  %or = or i64 %13, %shl
  store i64 %or, ptr %value, align 8
  br label %for.inc

for.inc:                                          ; preds = %for.body
  %14 = load i32, ptr %i, align 4
  %inc = add nsw i32 %14, 1
  store i32 %inc, ptr %i, align 4
  br label %for.cond, !llvm.loop !11

for.end:                                          ; preds = %for.cond
  %15 = load i64, ptr %value, align 8
  store i64 %15, ptr %retval, align 8
  br label %return

return:                                           ; preds = %for.end, %if.then
  %16 = load i64, ptr %retval, align 8
  ret i64 %16
}

; Function Attrs: mustprogress uwtable
define internal noundef { i64, i64 } @_ZN8facebook5velox10serializer6presto12_GLOBAL__N_115readJavaDecimalEPNS0_15ByteInputStreamE(ptr noundef %source) #0 {
entry:
  %retval.i5 = alloca i128, align 16
  %hi.addr.i6 = alloca i64, align 8
  %lo.addr.i7 = alloca i64, align 8
  %retval.i = alloca i128, align 16
  %hi.addr.i = alloca i64, align 8
  %lo.addr.i = alloca i64, align 8
  %retval = alloca i128, align 16
  %source.addr = alloca ptr, align 8
  %low = alloca i64, align 8
  %high = alloca i64, align 8
  %coerce = alloca i128, align 16
  %coerce4 = alloca i128, align 16
  store ptr %source, ptr %source.addr, align 8
  %0 = load ptr, ptr %source.addr, align 8
  %call = call noundef i64 @_ZN8facebook5velox15ByteInputStream4readIlEET_v(ptr noundef nonnull align 8 dereferenceable(40) %0)
  store i64 %call, ptr %low, align 8
  %1 = load ptr, ptr %source.addr, align 8
  %call1 = call noundef i64 @_ZN8facebook5velox15ByteInputStream4readIlEET_v(ptr noundef nonnull align 8 dereferenceable(40) %1)
  store i64 %call1, ptr %high, align 8
  %2 = load i64, ptr %high, align 8
  %cmp = icmp slt i64 %2, 0
  br i1 %cmp, label %if.then, label %if.end

if.then:                                          ; preds = %entry
  %3 = load i64, ptr %high, align 8
  %and = and i64 %3, 9223372036854775807
  %4 = load i64, ptr %low, align 8
  store i64 %and, ptr %hi.addr.i6, align 8
  store i64 %4, ptr %lo.addr.i7, align 8
  %5 = load i64, ptr %hi.addr.i6, align 8
  %conv.i8 = zext i64 %5 to i128
  %shl.i9 = shl i128 %conv.i8, 64
  %6 = load i64, ptr %lo.addr.i7, align 8
  %conv1.i10 = zext i64 %6 to i128
  %or.i11 = or i128 %shl.i9, %conv1.i10
  store i128 %or.i11, ptr %retval.i5, align 16
  %7 = load { i64, i64 }, ptr %retval.i5, align 16
  %8 = getelementptr inbounds { i64, i64 }, ptr %coerce, i32 0, i32 0
  %9 = extractvalue { i64, i64 } %7, 0
  store i64 %9, ptr %8, align 16
  %10 = getelementptr inbounds { i64, i64 }, ptr %coerce, i32 0, i32 1
  %11 = extractvalue { i64, i64 } %7, 1
  store i64 %11, ptr %10, align 8
  %12 = load i128, ptr %coerce, align 16
  %mul = mul nsw i128 -1, %12
  store i128 %mul, ptr %retval, align 16
  br label %return

if.end:                                           ; preds = %entry
  %13 = load i64, ptr %high, align 8
  %14 = load i64, ptr %low, align 8
  store i64 %13, ptr %hi.addr.i, align 8
  store i64 %14, ptr %lo.addr.i, align 8
  %15 = load i64, ptr %hi.addr.i, align 8
  %conv.i = zext i64 %15 to i128
  %shl.i = shl i128 %conv.i, 64
  %16 = load i64, ptr %lo.addr.i, align 8
  %conv1.i = zext i64 %16 to i128
  %or.i = or i128 %shl.i, %conv1.i
  store i128 %or.i, ptr %retval.i, align 16
  %17 = load { i64, i64 }, ptr %retval.i, align 16
  %18 = getelementptr inbounds { i64, i64 }, ptr %coerce4, i32 0, i32 0
  %19 = extractvalue { i64, i64 } %17, 0
  store i64 %19, ptr %18, align 16
  %20 = getelementptr inbounds { i64, i64 }, ptr %coerce4, i32 0, i32 1
  %21 = extractvalue { i64, i64 } %17, 1
  store i64 %21, ptr %20, align 8
  %22 = load i128, ptr %coerce4, align 16
  store i128 %22, ptr %retval, align 16
  br label %return

return:                                           ; preds = %if.end, %if.then
  %23 = load { i64, i64 }, ptr %retval, align 16
  ret { i64, i64 } %23
}