; Function Attrs: mustprogress uwtable
define internal fastcc noundef { i64, i64 } @_ZN8facebook5velox10serializer6presto12_GLOBAL__N_115readJavaDecimalEPNS0_15ByteInputStreamE(ptr noundef %source) unnamed_addr #0 {
entry:
  %current_.i = getelementptr inbounds i8, ptr %source, i64 32
  %0 = load ptr, ptr %current_.i, align 8
  %position.i = getelementptr inbounds i8, ptr %0, i64 12
  %1 = load i32, ptr %position.i, align 4
  %conv.i = sext i32 %1 to i64
  %add.i = add nsw i64 %conv.i, 8
  %size.i = getelementptr inbounds i8, ptr %0, i64 8
  %2 = load i32, ptr %size.i, align 8
  %conv3.i = sext i32 %2 to i64
  %cmp.not.i = icmp ugt i64 %add.i, %conv3.i
  br i1 %cmp.not.i, label %for.body.i, label %if.then.i

if.then.i:                                        ; preds = %entry
  %conv8.i = trunc i64 %add.i to i32
  store i32 %conv8.i, ptr %position.i, align 4
  %3 = load ptr, ptr %current_.i, align 8
  %4 = load ptr, ptr %3, align 8
  %position11.i = getelementptr inbounds i8, ptr %3, i64 12
  %5 = load i32, ptr %position11.i, align 4
  %idx.ext.i = sext i32 %5 to i64
  %add.ptr.i = getelementptr inbounds i8, ptr %4, i64 %idx.ext.i
  %add.ptr12.i = getelementptr inbounds i8, ptr %add.ptr.i, i64 -8
  %6 = load i64, ptr %add.ptr12.i, align 8
  br label %_ZN8facebook5velox15ByteInputStream4readIlEET_v.exit

for.body.i:                                       ; preds = %entry, %for.body.i
  %indvars.iv.i = phi i64 [ %indvars.iv.next.i, %for.body.i ], [ 0, %entry ]
  %value.04.i = phi i64 [ %or.i, %for.body.i ], [ 0, %entry ]
  %call.i = tail call noundef zeroext i8 @_ZN8facebook5velox15ByteInputStream8readByteEv(ptr noundef nonnull align 8 dereferenceable(40) %source)
  %conv15.i = zext i8 %call.i to i64
  %7 = shl nuw nsw i64 %indvars.iv.i, 3
  %shl.i = shl nuw i64 %conv15.i, %7
  %or.i = or i64 %shl.i, %value.04.i
  %indvars.iv.next.i = add nuw nsw i64 %indvars.iv.i, 1
  %exitcond.not.i = icmp eq i64 %indvars.iv.next.i, 8
  br i1 %exitcond.not.i, label %_ZN8facebook5velox15ByteInputStream4readIlEET_v.exit.loopexit, label %for.body.i, !llvm.loop !123

_ZN8facebook5velox15ByteInputStream4readIlEET_v.exit.loopexit: ; preds = %for.body.i
  %.pre = load ptr, ptr %current_.i, align 8
  %position.i13.phi.trans.insert = getelementptr inbounds i8, ptr %.pre, i64 12
  %.pre36 = load i32, ptr %position.i13.phi.trans.insert, align 4
  %.pre37 = sext i32 %.pre36 to i64
  br label %_ZN8facebook5velox15ByteInputStream4readIlEET_v.exit

_ZN8facebook5velox15ByteInputStream4readIlEET_v.exit: ; preds = %_ZN8facebook5velox15ByteInputStream4readIlEET_v.exit.loopexit, %if.then.i
  %conv.i14.pre-phi = phi i64 [ %.pre37, %_ZN8facebook5velox15ByteInputStream4readIlEET_v.exit.loopexit ], [ %idx.ext.i, %if.then.i ]
  %8 = phi ptr [ %.pre, %_ZN8facebook5velox15ByteInputStream4readIlEET_v.exit.loopexit ], [ %3, %if.then.i ]
  %retval.0.i = phi i64 [ %or.i, %_ZN8facebook5velox15ByteInputStream4readIlEET_v.exit.loopexit ], [ %6, %if.then.i ]
  %add.i15 = add nsw i64 %conv.i14.pre-phi, 8
  %size.i16 = getelementptr inbounds i8, ptr %8, i64 8
  %9 = load i32, ptr %size.i16, align 8
  %conv3.i17 = sext i32 %9 to i64
  %cmp.not.i18 = icmp ugt i64 %add.i15, %conv3.i17
  br i1 %cmp.not.i18, label %for.body.i26, label %if.then.i19

if.then.i19:                                      ; preds = %_ZN8facebook5velox15ByteInputStream4readIlEET_v.exit
  %position.i13 = getelementptr inbounds i8, ptr %8, i64 12
  %conv8.i20 = trunc i64 %add.i15 to i32
  store i32 %conv8.i20, ptr %position.i13, align 4
  %10 = load ptr, ptr %current_.i, align 8
  %11 = load ptr, ptr %10, align 8
  %position11.i21 = getelementptr inbounds i8, ptr %10, i64 12
  %12 = load i32, ptr %position11.i21, align 4
  %idx.ext.i22 = sext i32 %12 to i64
  %add.ptr.i23 = getelementptr inbounds i8, ptr %11, i64 %idx.ext.i22
  %add.ptr12.i24 = getelementptr inbounds i8, ptr %add.ptr.i23, i64 -8
  %13 = load i64, ptr %add.ptr12.i24, align 8
  br label %_ZN8facebook5velox15ByteInputStream4readIlEET_v.exit35

for.body.i26:                                     ; preds = %_ZN8facebook5velox15ByteInputStream4readIlEET_v.exit, %for.body.i26
  %indvars.iv.i27 = phi i64 [ %indvars.iv.next.i33, %for.body.i26 ], [ 0, %_ZN8facebook5velox15ByteInputStream4readIlEET_v.exit ]
  %value.04.i28 = phi i64 [ %or.i32, %for.body.i26 ], [ 0, %_ZN8facebook5velox15ByteInputStream4readIlEET_v.exit ]
  %call.i29 = tail call noundef zeroext i8 @_ZN8facebook5velox15ByteInputStream8readByteEv(ptr noundef nonnull align 8 dereferenceable(40) %source)
  %conv15.i30 = zext i8 %call.i29 to i64
  %14 = shl nuw nsw i64 %indvars.iv.i27, 3
  %shl.i31 = shl nuw i64 %conv15.i30, %14
  %or.i32 = or i64 %shl.i31, %value.04.i28
  %indvars.iv.next.i33 = add nuw nsw i64 %indvars.iv.i27, 1
  %exitcond.not.i34 = icmp eq i64 %indvars.iv.next.i33, 8
  br i1 %exitcond.not.i34, label %_ZN8facebook5velox15ByteInputStream4readIlEET_v.exit35, label %for.body.i26, !llvm.loop !123

_ZN8facebook5velox15ByteInputStream4readIlEET_v.exit35: ; preds = %for.body.i26, %if.then.i19
  %retval.0.i25 = phi i64 [ %13, %if.then.i19 ], [ %or.i32, %for.body.i26 ]
  %cmp = icmp slt i64 %retval.0.i25, 0
  br i1 %cmp, label %if.then, label %return

if.then:                                          ; preds = %_ZN8facebook5velox15ByteInputStream4readIlEET_v.exit35
  %and = and i64 %retval.0.i25, 9223372036854775807
  %and.neg = sub nsw i64 0, %and
  %and.neg.z = zext i64 %and.neg to i128
  %coerce.sroa.2.0.insert.shift.neg = shl nuw i128 %and.neg.z, 64
  %coerce.sroa.0.0.insert.ext = zext i64 %retval.0.i to i128
  %coerce.sroa.0.0.insert.insert.neg = sub i128 %coerce.sroa.2.0.insert.shift.neg, %coerce.sroa.0.0.insert.ext
  %retval.sroa.0.0.extract.trunc = trunc i128 %coerce.sroa.0.0.insert.insert.neg to i64
  %retval.sroa.3.0.extract.shift = lshr i128 %coerce.sroa.0.0.insert.insert.neg, 64
  %retval.sroa.3.0.extract.trunc = trunc i128 %retval.sroa.3.0.extract.shift to i64
  br label %return

return:                                           ; preds = %_ZN8facebook5velox15ByteInputStream4readIlEET_v.exit35, %if.then
  %retval.sroa.0.0 = phi i64 [ %retval.sroa.0.0.extract.trunc, %if.then ], [ %retval.0.i, %_ZN8facebook5velox15ByteInputStream4readIlEET_v.exit35 ]
  %retval.sroa.3.0 = phi i64 [ %retval.sroa.3.0.extract.trunc, %if.then ], [ %retval.0.i25, %_ZN8facebook5velox15ByteInputStream4readIlEET_v.exit35 ]
  %.fca.0.insert = insertvalue { i64, i64 } poison, i64 %retval.sroa.0.0, 0
  %.fca.1.insert = insertvalue { i64, i64 } %.fca.0.insert, i64 %retval.sroa.3.0, 1
  ret { i64, i64 } %.fca.1.insert
}